; Function Attrs: nounwind uwtable
define ptr @EVP_PKEY_get0_poly1305(ptr noundef captures(address_is_null) %0, ptr noundef writeonly captures(none) %1) local_unnamed_addr #0 {
  %3 = load i32, ptr %0, align 8, !tbaa !26
  %.not = icmp eq i32 %3, 1061
  br i1 %.not, label %5, label %4

4:                                                ; preds = %2
  tail call void @ERR_new() #12
  tail call void @ERR_set_debug(ptr noundef nonnull @.str, i32 noundef 853, ptr noundef nonnull @__func__.EVP_PKEY_get0_poly1305) #12
  tail call void (i32, i32, ptr, ...) @ERR_set_error(i32 noundef 6, i32 noundef 164, ptr noundef null) #12
  br label %12

5:                                                ; preds = %2
  %6 = tail call ptr @evp_pkey_get_legacy(ptr noundef nonnull %0)
  %.not8 = icmp eq ptr %6, null
  br i1 %.not8, label %12, label %7

7:                                                ; preds = %5
  %8 = load i32, ptr %6, align 8, !tbaa !81
  %9 = sext i32 %8 to i64
  store i64 %9, ptr %1, align 8, !tbaa !71
  %10 = getelementptr inbounds nuw i8, ptr %6, i64 8
  %11 = load ptr, ptr %10, align 8, !tbaa !83
  br label %12

12:                                               ; preds = %5, %7, %4
  %.0 = phi ptr [ null, %4 ], [ %11, %7 ], [ null, %5 ]
  ret ptr %.0
}